target datalayout = "e-m:e-p270:32:32-p271:32:32-p272:64:64-i64:64-i128:128-f80:128-n8:16:32:64-S128"
target triple = "x86_64-pc-linux-gnu"

%struct.wimaxasncp_build_dict_t = type { ptr, ptr }
%struct._value_string = type { i32, ptr }
%struct._wimaxasncp_dict_t = type { ptr, ptr }
%struct._wimaxasncp_dict_tlv_t = type { i16, ptr, ptr, i32, i32, i32, i32, i32, i32, i32, i32, i32, i32, i32, i32, i32, i32, ptr, ptr, ptr }
%struct._wimaxasncp_dict_namecode_t = type { ptr, i32, ptr }

@proto_wimaxasncp = internal global i32 0, align 4
@debug_enabled = internal global i8 0, align 1
@wimaxasncp_build_dict = hidden global %struct.wimaxasncp_build_dict_t zeroinitializer, align 8
@.str.23 = private unnamed_addr constant [8 x i8] c"Unknown\00", align 1
@wimaxasncp_dict = internal global ptr null, align 8
@.str.260 = private unnamed_addr constant [39 x i8] c"WIRESHARK_DEBUG_WIMAXASNCP_DICT_PARSER\00", align 1
@.str.261 = private unnamed_addr constant [31 x i8] c"WIRESHARK_DUMP_WIMAXASNCP_DICT\00", align 1
@.str.262 = private unnamed_addr constant [14 x i8] c"%s/wimaxasncp\00", align 1
@.str.263 = private unnamed_addr constant [15 x i8] c"dictionary.xml\00", align 1
@.str.264 = private unnamed_addr constant [16 x i8] c"wimaxasncp - %s\00", align 1
@stdout = external global ptr, align 8

; Function Attrs: null_pointer_is_valid sspstrong uwtable
define internal void @register_wimaxasncp_fields(ptr noundef %0) #0 {
  %2 = alloca ptr, align 8
  %3 = alloca i8, align 1
  %4 = alloca i8, align 1
  %5 = alloca ptr, align 8
  %6 = alloca ptr, align 8
  %7 = alloca ptr, align 8
  %8 = alloca ptr, align 8
  %9 = alloca ptr, align 8
  %10 = alloca ptr, align 8
  %11 = alloca %struct._value_string, align 8
  %12 = alloca ptr, align 8
  store ptr %0, ptr %2, align 8
  call void @llvm.lifetime.start.p0(i64 1, ptr %3) #8
  call void @llvm.lifetime.start.p0(i64 1, ptr %4) #8
  call void @llvm.lifetime.start.p0(i64 8, ptr %5) #8
  call void @llvm.lifetime.start.p0(i64 8, ptr %6) #8
  call void @llvm.lifetime.start.p0(i64 8, ptr %7) #8
  %13 = call ptr @getenv(ptr noundef @.str.260) #8
  %14 = icmp ne ptr %13, null
  %15 = zext i1 %14 to i8
  store i8 %15, ptr %3, align 1
  %16 = call ptr @getenv(ptr noundef @.str.261) #8
  %17 = icmp ne ptr %16, null
  %18 = zext i1 %17 to i8
  store i8 %18, ptr %4, align 1
  %19 = call ptr @get_datafile_dir()
  %20 = call noalias ptr (ptr, ptr, ...) @wmem_strdup_printf(ptr noundef null, ptr noundef @.str.262, ptr noundef %19)
  store ptr %20, ptr %5, align 8
  %21 = load ptr, ptr %5, align 8
  %22 = load i8, ptr %3, align 1, !range !9, !noundef !10
  %23 = trunc i8 %22 to i1
  %24 = zext i1 %23 to i32
  %25 = call ptr @wimaxasncp_dict_scan(ptr noundef %21, ptr noundef @.str.263, i32 noundef %24, ptr noundef %6)
  store ptr %25, ptr @wimaxasncp_dict, align 8
  %26 = load ptr, ptr %5, align 8
  call void @g_free(ptr noundef %26)
  %27 = load ptr, ptr %6, align 8
  %28 = icmp ne ptr %27, null
  br i1 %28, label %29, label %32

29:                                               ; preds = %1
  %30 = load ptr, ptr %6, align 8
  call void (ptr, ...) @report_failure(ptr noundef @.str.264, ptr noundef %30)
  %31 = load ptr, ptr %6, align 8
  call void @g_free(ptr noundef %31)
  br label %32

32:                                               ; preds = %29, %1
  %33 = load ptr, ptr @wimaxasncp_dict, align 8
  %34 = icmp ne ptr %33, null
  br i1 %34, label %35, label %41

35:                                               ; preds = %32
  %36 = load i8, ptr %4, align 1, !range !9, !noundef !10
  %37 = trunc i8 %36 to i1
  br i1 %37, label %38, label %41

38:                                               ; preds = %35
  %39 = load ptr, ptr @stdout, align 8
  %40 = load ptr, ptr @wimaxasncp_dict, align 8
  call void @wimaxasncp_dict_print(ptr noundef %39, ptr noundef %40)
  br label %41

41:                                               ; preds = %38, %35, %32
  %42 = call ptr @wmem_epan_scope()
  %43 = call noalias ptr @wmem_array_new(ptr noundef %42, i64 noundef 80)
  store ptr %43, ptr @wimaxasncp_build_dict, align 8
  %44 = load ptr, ptr @wimaxasncp_build_dict, align 8
  call void @wmem_array_append(ptr noundef %44, ptr noundef @register_wimaxasncp_fields.hf_base, i32 noundef 16)
  %45 = call ptr @wmem_epan_scope()
  %46 = call noalias ptr @wmem_array_new(ptr noundef %45, i64 noundef 8)
  store ptr %46, ptr getelementptr inbounds nuw (%struct.wimaxasncp_build_dict_t, ptr @wimaxasncp_build_dict, i32 0, i32 1), align 8
  %47 = load ptr, ptr getelementptr inbounds nuw (%struct.wimaxasncp_build_dict_t, ptr @wimaxasncp_build_dict, i32 0, i32 1), align 8
  call void @wmem_array_append(ptr noundef %47, ptr noundef @register_wimaxasncp_fields.ett_base, i32 noundef 13)
  %48 = load ptr, ptr @wimaxasncp_dict, align 8
  %49 = icmp ne ptr %48, null
  br i1 %49, label %50, label %99

50:                                               ; preds = %41
  call void @llvm.lifetime.start.p0(i64 8, ptr %8) #8
  %51 = load ptr, ptr @wimaxasncp_dict, align 8
  %52 = getelementptr inbounds nuw %struct._wimaxasncp_dict_t, ptr %51, i32 0, i32 0
  %53 = load ptr, ptr %52, align 8
  store ptr %53, ptr %8, align 8
  br label %54

54:                                               ; preds = %94, %50
  %55 = load ptr, ptr %8, align 8
  %56 = icmp ne ptr %55, null
  br i1 %56, label %57, label %98

57:                                               ; preds = %54
  %58 = load ptr, ptr %8, align 8
  %59 = getelementptr inbounds nuw %struct._wimaxasncp_dict_tlv_t, ptr %58, i32 0, i32 18
  %60 = load ptr, ptr %59, align 8
  %61 = icmp ne ptr %60, null
  br i1 %61, label %62, label %92

62:                                               ; preds = %57
  call void @llvm.lifetime.start.p0(i64 8, ptr %9) #8
  call void @llvm.lifetime.start.p0(i64 8, ptr %10) #8
  %63 = call ptr @wmem_epan_scope()
  %64 = call noalias ptr @wmem_array_new(ptr noundef %63, i64 noundef 16)
  store ptr %64, ptr %10, align 8
  %65 = load ptr, ptr %8, align 8
  %66 = getelementptr inbounds nuw %struct._wimaxasncp_dict_tlv_t, ptr %65, i32 0, i32 18
  %67 = load ptr, ptr %66, align 8
  store ptr %67, ptr %9, align 8
  br label %68

68:                                               ; preds = %82, %62
  %69 = load ptr, ptr %9, align 8
  %70 = icmp ne ptr %69, null
  br i1 %70, label %71, label %86

71:                                               ; preds = %68
  call void @llvm.lifetime.start.p0(i64 16, ptr %11) #8
  %72 = getelementptr inbounds nuw %struct._value_string, ptr %11, i32 0, i32 0
  %73 = load ptr, ptr %9, align 8
  %74 = getelementptr inbounds nuw %struct._wimaxasncp_dict_namecode_t, ptr %73, i32 0, i32 1
  %75 = load i32, ptr %74, align 8
  store i32 %75, ptr %72, align 8
  %76 = getelementptr i8, ptr %11, i64 4
  call void @llvm.memset.p0.i64(ptr align 4 %76, i8 0, i64 4, i1 false)
  %77 = getelementptr inbounds nuw %struct._value_string, ptr %11, i32 0, i32 1
  %78 = load ptr, ptr %9, align 8
  %79 = getelementptr inbounds nuw %struct._wimaxasncp_dict_namecode_t, ptr %78, i32 0, i32 0
  %80 = load ptr, ptr %79, align 8
  store ptr %80, ptr %77, align 8
  %81 = load ptr, ptr %10, align 8
  call void @wmem_array_append(ptr noundef %81, ptr noundef %11, i32 noundef 1)
  call void @llvm.lifetime.end.p0(i64 16, ptr %11) #8
  br label %82

82:                                               ; preds = %71
  %83 = load ptr, ptr %9, align 8
  %84 = getelementptr inbounds nuw %struct._wimaxasncp_dict_namecode_t, ptr %83, i32 0, i32 2
  %85 = load ptr, ptr %84, align 8
  store ptr %85, ptr %9, align 8
  br label %68, !llvm.loop !11

86:                                               ; preds = %68
  %87 = load ptr, ptr %10, align 8
  call void @wmem_array_set_null_terminator(ptr noundef %87)
  %88 = load ptr, ptr %10, align 8
  %89 = call ptr @wmem_array_get_raw(ptr noundef %88)
  %90 = load ptr, ptr %8, align 8
  %91 = getelementptr inbounds nuw %struct._wimaxasncp_dict_tlv_t, ptr %90, i32 0, i32 17
  store ptr %89, ptr %91, align 8
  call void @llvm.lifetime.end.p0(i64 8, ptr %10) #8
  call void @llvm.lifetime.end.p0(i64 8, ptr %9) #8
  br label %92

92:                                               ; preds = %86, %57
  %93 = load ptr, ptr %8, align 8
  call void @add_tlv_reg_info(ptr noundef %93)
  br label %94

94:                                               ; preds = %92
  %95 = load ptr, ptr %8, align 8
  %96 = getelementptr inbounds nuw %struct._wimaxasncp_dict_tlv_t, ptr %95, i32 0, i32 19
  %97 = load ptr, ptr %96, align 8
  store ptr %97, ptr %8, align 8
  br label %54, !llvm.loop !12

98:                                               ; preds = %54
  call void @llvm.lifetime.end.p0(i64 8, ptr %8) #8
  br label %99

99:                                               ; preds = %98, %41
  call void @add_tlv_reg_info(ptr noundef @wimaxasncp_tlv_not_found)
  %100 = load i8, ptr @debug_enabled, align 1, !range !9, !noundef !10
  %101 = trunc i8 %100 to i1
  br i1 %101, label %102, label %170

102:                                              ; preds = %99
  %103 = load ptr, ptr @wimaxasncp_dict, align 8
  %104 = icmp ne ptr %103, null
  br i1 %104, label %105, label %169

105:                                              ; preds = %102
  call void @llvm.lifetime.start.p0(i64 8, ptr %12) #8
  %106 = load ptr, ptr @wimaxasncp_dict, align 8
  %107 = getelementptr inbounds nuw %struct._wimaxasncp_dict_t, ptr %106, i32 0, i32 0
  %108 = load ptr, ptr %107, align 8
  store ptr %108, ptr %12, align 8
  br label %109

109:                                              ; preds = %164, %105
  %110 = load ptr, ptr %12, align 8
  %111 = icmp ne ptr %110, null
  br i1 %111, label %112, label %168

112:                                              ; preds = %109
  %113 = load ptr, ptr %12, align 8
  %114 = getelementptr inbounds nuw %struct._wimaxasncp_dict_tlv_t, ptr %113, i32 0, i32 1
  %115 = load ptr, ptr %114, align 8
  %116 = load ptr, ptr %12, align 8
  %117 = getelementptr inbounds nuw %struct._wimaxasncp_dict_tlv_t, ptr %116, i32 0, i32 0
  %118 = load i16, ptr %117, align 8
  %119 = zext i16 %118 to i32
  %120 = load ptr, ptr %12, align 8
  %121 = getelementptr inbounds nuw %struct._wimaxasncp_dict_tlv_t, ptr %120, i32 0, i32 2
  %122 = load ptr, ptr %121, align 8
  %123 = load ptr, ptr %12, align 8
  %124 = getelementptr inbounds nuw %struct._wimaxasncp_dict_tlv_t, ptr %123, i32 0, i32 3
  %125 = load i32, ptr %124, align 8
  %126 = call ptr @val_to_str(i32 noundef %125, ptr noundef @wimaxasncp_decode_type_vals, ptr noundef @.str.23)
  %127 = load ptr, ptr %12, align 8
  %128 = getelementptr inbounds nuw %struct._wimaxasncp_dict_tlv_t, ptr %127, i32 0, i32 5
  %129 = load i32, ptr %128, align 8
  %130 = load ptr, ptr %12, align 8
  %131 = getelementptr inbounds nuw %struct._wimaxasncp_dict_tlv_t, ptr %130, i32 0, i32 6
  %132 = load i32, ptr %131, align 4
  %133 = load ptr, ptr %12, align 8
  %134 = getelementptr inbounds nuw %struct._wimaxasncp_dict_tlv_t, ptr %133, i32 0, i32 7
  %135 = load i32, ptr %134, align 8
  %136 = load ptr, ptr %12, align 8
  %137 = getelementptr inbounds nuw %struct._wimaxasncp_dict_tlv_t, ptr %136, i32 0, i32 8
  %138 = load i32, ptr %137, align 4
  %139 = load ptr, ptr %12, align 8
  %140 = getelementptr inbounds nuw %struct._wimaxasncp_dict_tlv_t, ptr %139, i32 0, i32 9
  %141 = load i32, ptr %140, align 8
  %142 = load ptr, ptr %12, align 8
  %143 = getelementptr inbounds nuw %struct._wimaxasncp_dict_tlv_t, ptr %142, i32 0, i32 10
  %144 = load i32, ptr %143, align 4
  %145 = load ptr, ptr %12, align 8
  %146 = getelementptr inbounds nuw %struct._wimaxasncp_dict_tlv_t, ptr %145, i32 0, i32 11
  %147 = load i32, ptr %146, align 8
  %148 = load ptr, ptr %12, align 8
  %149 = getelementptr inbounds nuw %struct._wimaxasncp_dict_tlv_t, ptr %148, i32 0, i32 12
  %150 = load i32, ptr %149, align 4
  %151 = load ptr, ptr %12, align 8
  %152 = getelementptr inbounds nuw %struct._wimaxasncp_dict_tlv_t, ptr %151, i32 0, i32 13
  %153 = load i32, ptr %152, align 8
  %154 = load ptr, ptr %12, align 8
  %155 = getelementptr inbounds nuw %struct._wimaxasncp_dict_tlv_t, ptr %154, i32 0, i32 14
  %156 = load i32, ptr %155, align 4
  %157 = load ptr, ptr %12, align 8
  %158 = getelementptr inbounds nuw %struct._wimaxasncp_dict_tlv_t, ptr %157, i32 0, i32 15
  %159 = load i32, ptr %158, align 8
  %160 = load ptr, ptr %12, align 8
  %161 = getelementptr inbounds nuw %struct._wimaxasncp_dict_tlv_t, ptr %160, i32 0, i32 16
  %162 = load i32, ptr %161, align 4
  %163 = call i32 (i32, ptr, ...) @__printf_chk(i32 noundef 2, ptr noundef @.str.265, ptr noundef %115, i32 noundef %119, ptr noundef %122, ptr noundef %126, i32 noundef %129, i32 noundef %132, i32 noundef %135, i32 noundef %138, i32 noundef %141, i32 noundef %144, i32 noundef %147, i32 noundef %150, i32 noundef %153, i32 noundef %156, i32 noundef %159, i32 noundef %162)
  br label %164

164:                                              ; preds = %112
  %165 = load ptr, ptr %12, align 8
  %166 = getelementptr inbounds nuw %struct._wimaxasncp_dict_tlv_t, ptr %165, i32 0, i32 19
  %167 = load ptr, ptr %166, align 8
  store ptr %167, ptr %12, align 8
  br label %109, !llvm.loop !13

168:                                              ; preds = %109
  call void @llvm.lifetime.end.p0(i64 8, ptr %12) #8
  br label %169

169:                                              ; preds = %168, %102
  br label %170

170:                                              ; preds = %169, %99
  %171 = load i32, ptr @proto_wimaxasncp, align 4
  %172 = load ptr, ptr @wimaxasncp_build_dict, align 8
  %173 = call ptr @wmem_array_get_raw(ptr noundef %172)
  %174 = load ptr, ptr @wimaxasncp_build_dict, align 8
  %175 = call i32 @wmem_array_get_count(ptr noundef %174)
  call void @proto_register_field_array(i32 noundef %171, ptr noundef %173, i32 noundef %175)
  %176 = load ptr, ptr getelementptr inbounds nuw (%struct.wimaxasncp_build_dict_t, ptr @wimaxasncp_build_dict, i32 0, i32 1), align 8
  %177 = call ptr @wmem_array_get_raw(ptr noundef %176)
  %178 = load ptr, ptr getelementptr inbounds nuw (%struct.wimaxasncp_build_dict_t, ptr @wimaxasncp_build_dict, i32 0, i32 1), align 8
  %179 = call i32 @wmem_array_get_count(ptr noundef %178)
  call void @proto_register_subtree_array(ptr noundef %177, i32 noundef %179)
  %180 = load i32, ptr @proto_wimaxasncp, align 4
  %181 = call ptr @expert_register_protocol(i32 noundef %180)
  store ptr %181, ptr %7, align 8
  %182 = load ptr, ptr %7, align 8
  call void @expert_register_field_array(ptr noundef %182, ptr noundef @register_wimaxasncp_fields.ei, i32 noundef 5)
  call void @llvm.lifetime.end.p0(i64 8, ptr %7) #8
  call void @llvm.lifetime.end.p0(i64 8, ptr %6) #8
  call void @llvm.lifetime.end.p0(i64 8, ptr %5) #8
  call void @llvm.lifetime.end.p0(i64 1, ptr %4) #8
  call void @llvm.lifetime.end.p0(i64 1, ptr %3) #8
  ret void
}