; Function Attrs: null_pointer_is_valid sspstrong uwtable
define internal void @register_wimaxasncp_fields(ptr readnone captures(none) %0) #0 {
  %2 = alloca ptr, align 8
  %3 = alloca %struct._value_string, align 8
  call void @llvm.lifetime.start.p0(i64 8, ptr nonnull %2) #8
  %4 = tail call ptr @getenv(ptr noundef nonnull @.str.260) #8
  %5 = icmp ne ptr %4, null
  %6 = tail call ptr @getenv(ptr noundef nonnull @.str.261) #8
  %.not = icmp eq ptr %6, null
  %7 = tail call ptr @get_datafile_dir()
  %8 = tail call noalias ptr (ptr, ptr, ...) @wmem_strdup_printf(ptr noundef null, ptr noundef nonnull @.str.262, ptr noundef %7)
  %9 = zext i1 %5 to i32
  %10 = call ptr @wimaxasncp_dict_scan(ptr noundef %8, ptr noundef nonnull @.str.263, i32 noundef %9, ptr noundef nonnull %2)
  store ptr %10, ptr @wimaxasncp_dict, align 8
  call void @g_free(ptr noundef %8)
  %11 = load ptr, ptr %2, align 8
  %.not42 = icmp eq ptr %11, null
  br i1 %.not42, label %14, label %12

12:                                               ; preds = %1
  call void (ptr, ...) @report_failure(ptr noundef nonnull @.str.264, ptr noundef nonnull %11)
  %13 = load ptr, ptr %2, align 8
  call void @g_free(ptr noundef %13)
  br label %14

14:                                               ; preds = %12, %1
  %15 = load ptr, ptr @wimaxasncp_dict, align 8
  %.not43 = icmp eq ptr %15, null
  %brmerge = or i1 %.not, %.not43
  br i1 %brmerge, label %18, label %16

16:                                               ; preds = %14
  %17 = load ptr, ptr @stdout, align 8
  call void @wimaxasncp_dict_print(ptr noundef %17, ptr noundef nonnull %15)
  br label %18

18:                                               ; preds = %14, %16
  %19 = call ptr @wmem_epan_scope()
  %20 = call noalias ptr @wmem_array_new(ptr noundef %19, i64 noundef 80)
  store ptr %20, ptr @wimaxasncp_build_dict, align 8
  call void @wmem_array_append(ptr noundef %20, ptr noundef nonnull @register_wimaxasncp_fields.hf_base, i32 noundef 16)
  %21 = call ptr @wmem_epan_scope()
  %22 = call noalias ptr @wmem_array_new(ptr noundef %21, i64 noundef 8)
  store ptr %22, ptr getelementptr inbounds nuw (i8, ptr @wimaxasncp_build_dict, i64 8), align 8
  call void @wmem_array_append(ptr noundef %22, ptr noundef nonnull @register_wimaxasncp_fields.ett_base, i32 noundef 13)
  %23 = load ptr, ptr @wimaxasncp_dict, align 8
  %.not44 = icmp eq ptr %23, null
  br i1 %.not44, label %.loopexit50, label %.preheader49

.preheader49:                                     ; preds = %18
  %.03654 = load ptr, ptr %23, align 8
  %.not4555 = icmp eq ptr %.03654, null
  br i1 %.not4555, label %.loopexit50, label %.lr.ph57

.lr.ph57:                                         ; preds = %.preheader49
  %24 = getelementptr inbounds nuw i8, ptr %3, i64 4
  %25 = getelementptr inbounds nuw i8, ptr %3, i64 8
  br label %26

26:                                               ; preds = %.lr.ph57, %38
  %.03656 = phi ptr [ %.03654, %.lr.ph57 ], [ %.036, %38 ]
  %27 = getelementptr inbounds nuw i8, ptr %.03656, i64 88
  %28 = load ptr, ptr %27, align 8
  %.not47 = icmp eq ptr %28, null
  br i1 %.not47, label %38, label %29

29:                                               ; preds = %26
  %30 = call ptr @wmem_epan_scope()
  %31 = call noalias ptr @wmem_array_new(ptr noundef %30, i64 noundef 16)
  %.03751 = load ptr, ptr %27, align 8
  %.not4852 = icmp eq ptr %.03751, null
  br i1 %.not4852, label %._crit_edge, label %.lr.ph

.lr.ph:                                           ; preds = %29, %.lr.ph
  %.03753 = phi ptr [ %.037, %.lr.ph ], [ %.03751, %29 ]
  call void @llvm.lifetime.start.p0(i64 16, ptr nonnull %3) #8
  %32 = getelementptr inbounds nuw i8, ptr %.03753, i64 8
  %33 = load i32, ptr %32, align 8
  store i32 %33, ptr %3, align 8
  store i32 0, ptr %24, align 4
  %34 = load ptr, ptr %.03753, align 8
  store ptr %34, ptr %25, align 8
  call void @wmem_array_append(ptr noundef %31, ptr noundef nonnull %3, i32 noundef 1)
  call void @llvm.lifetime.end.p0(i64 16, ptr nonnull %3) #8
  %35 = getelementptr inbounds nuw i8, ptr %.03753, i64 16
  %.037 = load ptr, ptr %35, align 8
  %.not48 = icmp eq ptr %.037, null
  br i1 %.not48, label %._crit_edge, label %.lr.ph, !llvm.loop !12

._crit_edge:                                      ; preds = %.lr.ph, %29
  call void @wmem_array_set_null_terminator(ptr noundef %31)
  %36 = call ptr @wmem_array_get_raw(ptr noundef %31)
  %37 = getelementptr inbounds nuw i8, ptr %.03656, i64 80
  store ptr %36, ptr %37, align 8
  br label %38

38:                                               ; preds = %._crit_edge, %26
  call fastcc void @add_tlv_reg_info(ptr noundef nonnull %.03656)
  %39 = getelementptr inbounds nuw i8, ptr %.03656, i64 96
  %.036 = load ptr, ptr %39, align 8
  %.not45 = icmp eq ptr %.036, null
  br i1 %.not45, label %.loopexit50, label %26, !llvm.loop !13

.loopexit50:                                      ; preds = %38, %.preheader49, %18
  call fastcc void @add_tlv_reg_info(ptr noundef nonnull @wimaxasncp_tlv_not_found)
  %40 = load i8, ptr @debug_enabled, align 1, !range !10, !noundef !11
  %41 = trunc nuw i8 %40 to i1
  %42 = load ptr, ptr @wimaxasncp_dict, align 8
  %43 = icmp ne ptr %42, null
  %or.cond = select i1 %41, i1 %43, i1 false
  br i1 %or.cond, label %.preheader, label %.loopexit

.preheader:                                       ; preds = %.loopexit50
  %.058 = load ptr, ptr %42, align 8
  %.not4659 = icmp eq ptr %.058, null
  br i1 %.not4659, label %.loopexit, label %.lr.ph61

.lr.ph61:                                         ; preds = %.preheader, %.lr.ph61
  %.060 = phi ptr [ %.0, %.lr.ph61 ], [ %.058, %.preheader ]
  %44 = getelementptr inbounds nuw i8, ptr %.060, i64 8
  %45 = load ptr, ptr %44, align 8
  %46 = load i16, ptr %.060, align 8
  %47 = zext i16 %46 to i32
  %48 = getelementptr inbounds nuw i8, ptr %.060, i64 16
  %49 = load ptr, ptr %48, align 8
  %50 = getelementptr inbounds nuw i8, ptr %.060, i64 24
  %51 = load i32, ptr %50, align 8
  %52 = call ptr @val_to_str(i32 noundef %51, ptr noundef nonnull @wimaxasncp_decode_type_vals, ptr noundef nonnull @.str.23)
  %53 = getelementptr inbounds nuw i8, ptr %.060, i64 32
  %54 = load i32, ptr %53, align 8
  %55 = getelementptr inbounds nuw i8, ptr %.060, i64 36
  %56 = load i32, ptr %55, align 4
  %57 = getelementptr inbounds nuw i8, ptr %.060, i64 40
  %58 = load i32, ptr %57, align 8
  %59 = getelementptr inbounds nuw i8, ptr %.060, i64 44
  %60 = load i32, ptr %59, align 4
  %61 = getelementptr inbounds nuw i8, ptr %.060, i64 48
  %62 = load i32, ptr %61, align 8
  %63 = getelementptr inbounds nuw i8, ptr %.060, i64 52
  %64 = load i32, ptr %63, align 4
  %65 = getelementptr inbounds nuw i8, ptr %.060, i64 56
  %66 = load i32, ptr %65, align 8
  %67 = getelementptr inbounds nuw i8, ptr %.060, i64 60
  %68 = load i32, ptr %67, align 4
  %69 = getelementptr inbounds nuw i8, ptr %.060, i64 64
  %70 = load i32, ptr %69, align 8
  %71 = getelementptr inbounds nuw i8, ptr %.060, i64 68
  %72 = load i32, ptr %71, align 4
  %73 = getelementptr inbounds nuw i8, ptr %.060, i64 72
  %74 = load i32, ptr %73, align 8
  %75 = getelementptr inbounds nuw i8, ptr %.060, i64 76
  %76 = load i32, ptr %75, align 4
  %77 = call i32 (i32, ptr, ...) @__printf_chk(i32 noundef 2, ptr noundef nonnull @.str.265, ptr noundef %45, i32 noundef %47, ptr noundef %49, ptr noundef %52, i32 noundef %54, i32 noundef %56, i32 noundef %58, i32 noundef %60, i32 noundef %62, i32 noundef %64, i32 noundef %66, i32 noundef %68, i32 noundef %70, i32 noundef %72, i32 noundef %74, i32 noundef %76)
  %78 = getelementptr inbounds nuw i8, ptr %.060, i64 96
  %.0 = load ptr, ptr %78, align 8
  %.not46 = icmp eq ptr %.0, null
  br i1 %.not46, label %.loopexit, label %.lr.ph61, !llvm.loop !14

.loopexit:                                        ; preds = %.lr.ph61, %.preheader, %.loopexit50
  %79 = load i32, ptr @proto_wimaxasncp, align 4
  %80 = load ptr, ptr @wimaxasncp_build_dict, align 8
  %81 = call ptr @wmem_array_get_raw(ptr noundef %80)
  %82 = load ptr, ptr @wimaxasncp_build_dict, align 8
  %83 = call i32 @wmem_array_get_count(ptr noundef %82)
  call void @proto_register_field_array(i32 noundef %79, ptr noundef %81, i32 noundef %83)
  %84 = load ptr, ptr getelementptr inbounds nuw (i8, ptr @wimaxasncp_build_dict, i64 8), align 8
  %85 = call ptr @wmem_array_get_raw(ptr noundef %84)
  %86 = load ptr, ptr getelementptr inbounds nuw (i8, ptr @wimaxasncp_build_dict, i64 8), align 8
  %87 = call i32 @wmem_array_get_count(ptr noundef %86)
  call void @proto_register_subtree_array(ptr noundef %85, i32 noundef %87)
  %88 = load i32, ptr @proto_wimaxasncp, align 4
  %89 = call ptr @expert_register_protocol(i32 noundef %88)
  call void @expert_register_field_array(ptr noundef %89, ptr noundef nonnull @register_wimaxasncp_fields.ei, i32 noundef 5)
  call void @llvm.lifetime.end.p0(i64 8, ptr nonnull %2) #8
  ret void
}